; Function Attrs: nounwind uwtable
define dso_local noundef zeroext i1 @_ZThn56_N4node6crypto7TLSWrap7IsAliveEv(ptr nocapture noundef readonly %this) unnamed_addr #6 align 2 {
entry:
  %ssl_.i = getelementptr inbounds i8, ptr %this, i64 112
  %0 = load ptr, ptr %ssl_.i, align 8
  %cmp.i.not.i = icmp eq ptr %0, null
  br i1 %cmp.i.not.i, label %_ZN4node6crypto7TLSWrap7IsAliveEv.exit, label %land.lhs.true.i

land.lhs.true.i:                                  ; preds = %entry
  %stream_.i.i.i = getelementptr inbounds i8, ptr %this, i64 72
  %1 = load ptr, ptr %stream_.i.i.i, align 8
  %cmp.not.i = icmp eq ptr %1, null
  br i1 %cmp.not.i, label %_ZN4node6crypto7TLSWrap7IsAliveEv.exit, label %land.rhs.i

land.rhs.i:                                       ; preds = %land.lhs.true.i
  %vtable.i = load ptr, ptr %1, align 8
  %vfn.i = getelementptr inbounds i8, ptr %vtable.i, i64 80
  %2 = load ptr, ptr %vfn.i, align 8
  %call4.i = tail call noundef zeroext i1 %2(ptr noundef nonnull align 8 dereferenceable(64) %1) #23
  br label %_ZN4node6crypto7TLSWrap7IsAliveEv.exit

_ZN4node6crypto7TLSWrap7IsAliveEv.exit:           ; preds = %entry, %land.lhs.true.i, %land.rhs.i
  %3 = phi i1 [ false, %land.lhs.true.i ], [ false, %entry ], [ %call4.i, %land.rhs.i ]
  ret i1 %3
}